target datalayout = "e-m:e-p270:32:32-p271:32:32-p272:64:64-i64:64-i128:128-f80:128-n8:16:32:64-S128"
target triple = "x86_64-pc-linux-gnu"

%"class.cv::Point_" = type { i32, i32 }
%"class.cv::tracking::impl::tld::TLDEnsembleClassifier" = type <{ %"class.std::vector", %"class.std::vector.0", %"class.std::vector", i32, [4 x i8] }>
%"class.std::vector.0" = type { %"struct.std::_Vector_base.1" }
%"struct.std::_Vector_base.1" = type { %"struct.std::_Vector_base<cv::Vec<unsigned char, 4>, std::allocator<cv::Vec<unsigned char, 4>>>::_Vector_impl" }
%"struct.std::_Vector_base<cv::Vec<unsigned char, 4>, std::allocator<cv::Vec<unsigned char, 4>>>::_Vector_impl" = type { %"struct.std::_Vector_base<cv::Vec<unsigned char, 4>, std::allocator<cv::Vec<unsigned char, 4>>>::_Vector_impl_data" }
%"struct.std::_Vector_base<cv::Vec<unsigned char, 4>, std::allocator<cv::Vec<unsigned char, 4>>>::_Vector_impl_data" = type { ptr, ptr, ptr }
%"class.std::vector" = type { %"struct.std::_Vector_base" }
%"struct.std::_Vector_base" = type { %"struct.std::_Vector_base<cv::Point_<int>, std::allocator<cv::Point_<int>>>::_Vector_impl" }
%"struct.std::_Vector_base<cv::Point_<int>, std::allocator<cv::Point_<int>>>::_Vector_impl" = type { %"struct.std::_Vector_base<cv::Point_<int>, std::allocator<cv::Point_<int>>>::_Vector_impl_data" }
%"struct.std::_Vector_base<cv::Point_<int>, std::allocator<cv::Point_<int>>>::_Vector_impl_data" = type { ptr, ptr, ptr }

; Function Attrs: mustprogress nounwind uwtable
define linkonce_odr hidden noundef nonnull align 4 dereferenceable(8) ptr @_ZNKSt6vectorIN2cv6Point_IiEESaIS2_EEixEm(ptr noundef nonnull align 8 dereferenceable(24) %0, i64 noundef %1) #5 comdat align 2 {
  %3 = alloca ptr, align 8
  %4 = alloca i64, align 8
  store ptr %0, ptr %3, align 8, !tbaa !26
  store i64 %1, ptr %4, align 8, !tbaa !28
  %5 = load ptr, ptr %3, align 8
  %6 = getelementptr inbounds nuw %"struct.std::_Vector_base", ptr %5, i32 0, i32 0
  %7 = getelementptr inbounds nuw %"struct.std::_Vector_base<cv::Point_<int>, std::allocator<cv::Point_<int>>>::_Vector_impl_data", ptr %6, i32 0, i32 0
  %8 = load ptr, ptr %7, align 8, !tbaa !40
  %9 = load i64, ptr %4, align 8, !tbaa !28
  %10 = getelementptr inbounds nuw %"class.cv::Point_", ptr %8, i64 %9
  ret ptr %10
}

; Function Attrs: mustprogress nounwind uwtable
define linkonce_odr hidden noundef i64 @_ZNKSt6vectorIN2cv3VecIhLi4EEESaIS2_EE4sizeEv(ptr noundef nonnull align 8 dereferenceable(24) %0) #5 comdat align 2 {
  %2 = alloca ptr, align 8
  store ptr %0, ptr %2, align 8, !tbaa !8
  %3 = load ptr, ptr %2, align 8
  %4 = getelementptr inbounds nuw %"struct.std::_Vector_base.1", ptr %3, i32 0, i32 0
  %5 = getelementptr inbounds nuw %"struct.std::_Vector_base<cv::Vec<unsigned char, 4>, std::allocator<cv::Vec<unsigned char, 4>>>::_Vector_impl_data", ptr %4, i32 0, i32 1
  %6 = load ptr, ptr %5, align 8, !tbaa !43
  %7 = getelementptr inbounds nuw %"struct.std::_Vector_base.1", ptr %3, i32 0, i32 0
  %8 = getelementptr inbounds nuw %"struct.std::_Vector_base<cv::Vec<unsigned char, 4>, std::allocator<cv::Vec<unsigned char, 4>>>::_Vector_impl_data", ptr %7, i32 0, i32 0
  %9 = load ptr, ptr %8, align 8, !tbaa !42
  %10 = ptrtoint ptr %6 to i64
  %11 = ptrtoint ptr %9 to i64
  %12 = sub i64 %10, %11
  %13 = sdiv exact i64 %12, 4
  ret i64 %13
}

; Function Attrs: mustprogress nounwind uwtable
define hidden noundef i32 @_ZNK2cv8tracking4impl3tld21TLDEnsembleClassifier8codeFastEPKh(ptr noundef nonnull align 8 dereferenceable(76) %0, ptr noundef %1) #5 align 2 {
  %3 = alloca ptr, align 8
  %4 = alloca ptr, align 8
  %5 = alloca i32, align 4
  %6 = alloca i32, align 4
  store ptr %0, ptr %3, align 8, !tbaa !3
  store ptr %1, ptr %4, align 8, !tbaa !62
  %7 = load ptr, ptr %3, align 8
  call void @llvm.lifetime.start.p0(i64 4, ptr %5) #3
  store i32 0, ptr %5, align 4, !tbaa !10
  call void @llvm.lifetime.start.p0(i64 4, ptr %6) #3
  store i32 0, ptr %6, align 4, !tbaa !10
  br label %8

8:                                                ; preds = %45, %2
  %9 = load i32, ptr %6, align 4, !tbaa !10
  %10 = getelementptr inbounds nuw %"class.cv::tracking::impl::tld::TLDEnsembleClassifier", ptr %7, i32 0, i32 1
  %11 = call noundef i64 @_ZNKSt6vectorIN2cv3VecIhLi4EEESaIS2_EE4sizeEv(ptr noundef nonnull align 8 dereferenceable(24) %10) #3
  %12 = trunc i64 %11 to i32
  %13 = icmp slt i32 %9, %12
  br i1 %13, label %15, label %14

14:                                               ; preds = %8
  call void @llvm.lifetime.end.p0(i64 4, ptr %6) #3
  br label %48

15:                                               ; preds = %8
  %16 = load i32, ptr %5, align 4, !tbaa !10
  %17 = shl i32 %16, 1
  store i32 %17, ptr %5, align 4, !tbaa !10
  %18 = load ptr, ptr %4, align 8, !tbaa !62
  %19 = getelementptr inbounds nuw %"class.cv::tracking::impl::tld::TLDEnsembleClassifier", ptr %7, i32 0, i32 2
  %20 = load i32, ptr %6, align 4, !tbaa !10
  %21 = sext i32 %20 to i64
  %22 = call noundef nonnull align 4 dereferenceable(8) ptr @_ZNKSt6vectorIN2cv6Point_IiEESaIS2_EEixEm(ptr noundef nonnull align 8 dereferenceable(24) %19, i64 noundef %21) #3
  %23 = getelementptr inbounds nuw %"class.cv::Point_", ptr %22, i32 0, i32 0
  %24 = load i32, ptr %23, align 4, !tbaa !31
  %25 = sext i32 %24 to i64
  %26 = getelementptr inbounds i8, ptr %18, i64 %25
  %27 = load i8, ptr %26, align 1, !tbaa !44
  %28 = zext i8 %27 to i32
  %29 = load ptr, ptr %4, align 8, !tbaa !62
  %30 = getelementptr inbounds nuw %"class.cv::tracking::impl::tld::TLDEnsembleClassifier", ptr %7, i32 0, i32 2
  %31 = load i32, ptr %6, align 4, !tbaa !10
  %32 = sext i32 %31 to i64
  %33 = call noundef nonnull align 4 dereferenceable(8) ptr @_ZNKSt6vectorIN2cv6Point_IiEESaIS2_EEixEm(ptr noundef nonnull align 8 dereferenceable(24) %30, i64 noundef %32) #3
  %34 = getelementptr inbounds nuw %"class.cv::Point_", ptr %33, i32 0, i32 1
  %35 = load i32, ptr %34, align 4, !tbaa !33
  %36 = sext i32 %35 to i64
  %37 = getelementptr inbounds i8, ptr %29, i64 %36
  %38 = load i8, ptr %37, align 1, !tbaa !44
  %39 = zext i8 %38 to i32
  %40 = icmp slt i32 %28, %39
  br i1 %40, label %41, label %44

41:                                               ; preds = %15
  %42 = load i32, ptr %5, align 4, !tbaa !10
  %43 = add nsw i32 %42, 1
  store i32 %43, ptr %5, align 4, !tbaa !10
  br label %44

44:                                               ; preds = %41, %15
  br label %45

45:                                               ; preds = %44
  %46 = load i32, ptr %6, align 4, !tbaa !10
  %47 = add nsw i32 %46, 1
  store i32 %47, ptr %6, align 4, !tbaa !10
  br label %8, !llvm.loop !69

48:                                               ; preds = %14
  %49 = load i32, ptr %5, align 4, !tbaa !10
  call void @llvm.lifetime.end.p0(i64 4, ptr %5) #3
  ret i32 %49
}