; Function Attrs: mustprogress nofree norecurse nosync nounwind willreturn memory(read, inaccessiblemem: none) uwtable
define hidden noundef i32 @_ZNK2cv8tracking4impl3tld21TLDEnsembleClassifier8codeFastEPKh(ptr noundef nonnull readonly align 8 captures(none) dereferenceable(76) %0, ptr noundef readonly captures(none) %1) local_unnamed_addr #6 align 2 {
  %3 = getelementptr inbounds nuw i8, ptr %0, i64 24
  %4 = getelementptr inbounds nuw i8, ptr %0, i64 32
  %5 = load ptr, ptr %4, align 8, !tbaa !27
  %6 = load ptr, ptr %3, align 8, !tbaa !26
  %7 = ptrtoint ptr %5 to i64
  %8 = ptrtoint ptr %6 to i64
  %9 = sub i64 %7, %8
  %10 = lshr exact i64 %9, 2
  %11 = trunc i64 %10 to i32
  %12 = icmp sgt i32 %11, 0
  br i1 %12, label %.lr.ph, label %._crit_edge

.lr.ph:                                           ; preds = %2
  %13 = getelementptr inbounds nuw i8, ptr %0, i64 48
  %14 = load ptr, ptr %13, align 8, !tbaa !25
  %wide.trip.count = and i64 %10, 2147483647
  br label %15

._crit_edge:                                      ; preds = %15, %2
  %.09.lcssa = phi i32 [ 0, %2 ], [ %spec.select, %15 ]
  ret i32 %.09.lcssa

15:                                               ; preds = %.lr.ph, %15
  %indvars.iv = phi i64 [ 0, %.lr.ph ], [ %indvars.iv.next, %15 ]
  %.0910 = phi i32 [ 0, %.lr.ph ], [ %spec.select, %15 ]
  %16 = shl i32 %.0910, 1
  %17 = getelementptr inbounds nuw %"class.cv::Point_", ptr %14, i64 %indvars.iv
  %18 = load i32, ptr %17, align 4, !tbaa !19
  %19 = sext i32 %18 to i64
  %20 = getelementptr inbounds i8, ptr %1, i64 %19
  %21 = load i8, ptr %20, align 1, !tbaa !28
  %22 = getelementptr inbounds nuw i8, ptr %17, i64 4
  %23 = load i32, ptr %22, align 4, !tbaa !21
  %24 = sext i32 %23 to i64
  %25 = getelementptr inbounds i8, ptr %1, i64 %24
  %26 = load i8, ptr %25, align 1, !tbaa !28
  %27 = icmp ult i8 %21, %26
  %28 = zext i1 %27 to i32
  %spec.select = or disjoint i32 %16, %28
  %indvars.iv.next = add nuw nsw i64 %indvars.iv, 1
  %exitcond.not = icmp eq i64 %indvars.iv.next, %wide.trip.count
  br i1 %exitcond.not, label %._crit_edge, label %15, !llvm.loop !45
}